target datalayout = "e-m:e-p270:32:32-p271:32:32-p272:64:64-i64:64-i128:128-f80:128-n8:16:32:64-S128"
target triple = "x86_64-pc-linux-gnu"

%struct.SDL_BlitInfo = type { ptr, ptr, i32, i32, i32, i32, ptr, ptr, i32, i32, i32, i32, ptr, ptr, ptr, ptr, ptr, ptr, i32, i32, i8, i8, i8, i8 }
%struct.SDL_PixelFormatDetails = type { i32, i8, i8, [2 x i8], i32, i32, i32, i32, i8, i8, i8, i8, i8, i8, i8, i8 }

; Function Attrs: alwaysinline nounwind uwtable
define internal void @BlitBto3Key(ptr noundef %0, i32 noundef %1) #2 {
  %3 = alloca ptr, align 8
  %4 = alloca i32, align 4
  %5 = alloca i32, align 4
  %6 = alloca i32, align 4
  %7 = alloca i32, align 4
  %8 = alloca i32, align 4
  %9 = alloca ptr, align 8
  %10 = alloca ptr, align 8
  %11 = alloca i32, align 4
  %12 = alloca i32, align 4
  %13 = alloca i32, align 4
  %14 = alloca ptr, align 8
  %15 = alloca i32, align 4
  %16 = alloca i8, align 1
  %17 = alloca i8, align 1
  %18 = alloca i8, align 1
  %19 = alloca i8, align 1
  store ptr %0, ptr %3, align 8
  store i32 %1, ptr %4, align 4
  call void @llvm.lifetime.start.p0(i64 4, ptr %5) #4
  %20 = load i32, ptr %4, align 4
  %21 = shl i32 1, %20
  %22 = sub nsw i32 %21, 1
  store i32 %22, ptr %5, align 4
  call void @llvm.lifetime.start.p0(i64 4, ptr %6) #4
  %23 = load i32, ptr %4, align 4
  %24 = udiv i32 8, %23
  %25 = sub i32 %24, 1
  store i32 %25, ptr %6, align 4
  call void @llvm.lifetime.start.p0(i64 4, ptr %7) #4
  %26 = load ptr, ptr %3, align 8
  %27 = getelementptr inbounds nuw %struct.SDL_BlitInfo, ptr %26, i32 0, i32 8
  %28 = load i32, ptr %27, align 8
  store i32 %28, ptr %7, align 4
  call void @llvm.lifetime.start.p0(i64 4, ptr %8) #4
  %29 = load ptr, ptr %3, align 8
  %30 = getelementptr inbounds nuw %struct.SDL_BlitInfo, ptr %29, i32 0, i32 9
  %31 = load i32, ptr %30, align 4
  store i32 %31, ptr %8, align 4
  call void @llvm.lifetime.start.p0(i64 8, ptr %9) #4
  %32 = load ptr, ptr %3, align 8
  %33 = getelementptr inbounds nuw %struct.SDL_BlitInfo, ptr %32, i32 0, i32 1
  %34 = load ptr, ptr %33, align 8
  store ptr %34, ptr %9, align 8
  call void @llvm.lifetime.start.p0(i64 8, ptr %10) #4
  %35 = load ptr, ptr %3, align 8
  %36 = getelementptr inbounds nuw %struct.SDL_BlitInfo, ptr %35, i32 0, i32 7
  %37 = load ptr, ptr %36, align 8
  store ptr %37, ptr %10, align 8
  call void @llvm.lifetime.start.p0(i64 4, ptr %11) #4
  %38 = load ptr, ptr %3, align 8
  %39 = getelementptr inbounds nuw %struct.SDL_BlitInfo, ptr %38, i32 0, i32 5
  %40 = load i32, ptr %39, align 4
  store i32 %40, ptr %11, align 4
  call void @llvm.lifetime.start.p0(i64 4, ptr %12) #4
  %41 = load ptr, ptr %3, align 8
  %42 = getelementptr inbounds nuw %struct.SDL_BlitInfo, ptr %41, i32 0, i32 11
  %43 = load i32, ptr %42, align 4
  store i32 %43, ptr %12, align 4
  call void @llvm.lifetime.start.p0(i64 4, ptr %13) #4
  %44 = load ptr, ptr %3, align 8
  %45 = getelementptr inbounds nuw %struct.SDL_BlitInfo, ptr %44, i32 0, i32 19
  %46 = load i32, ptr %45, align 4
  store i32 %46, ptr %13, align 4
  call void @llvm.lifetime.start.p0(i64 8, ptr %14) #4
  %47 = load ptr, ptr %3, align 8
  %48 = getelementptr inbounds nuw %struct.SDL_BlitInfo, ptr %47, i32 0, i32 16
  %49 = load ptr, ptr %48, align 8
  store ptr %49, ptr %14, align 8
  call void @llvm.lifetime.start.p0(i64 4, ptr %15) #4
  %50 = load i32, ptr %4, align 4
  %51 = icmp eq i32 %50, 4
  br i1 %51, label %52, label %60

52:                                               ; preds = %2
  %53 = load i32, ptr %7, align 4
  %54 = load i32, ptr %7, align 4
  %55 = add nsw i32 %54, 1
  %56 = sdiv i32 %55, 2
  %57 = sub nsw i32 %53, %56
  %58 = load i32, ptr %11, align 4
  %59 = add nsw i32 %58, %57
  store i32 %59, ptr %11, align 4
  br label %84

60:                                               ; preds = %2
  %61 = load i32, ptr %4, align 4
  %62 = icmp eq i32 %61, 2
  br i1 %62, label %63, label %71

63:                                               ; preds = %60
  %64 = load i32, ptr %7, align 4
  %65 = load i32, ptr %7, align 4
  %66 = add nsw i32 %65, 3
  %67 = sdiv i32 %66, 4
  %68 = sub nsw i32 %64, %67
  %69 = load i32, ptr %11, align 4
  %70 = add nsw i32 %69, %68
  store i32 %70, ptr %11, align 4
  br label %83

71:                                               ; preds = %60
  %72 = load i32, ptr %4, align 4
  %73 = icmp eq i32 %72, 1
  br i1 %73, label %74, label %82

74:                                               ; preds = %71
  %75 = load i32, ptr %7, align 4
  %76 = load i32, ptr %7, align 4
  %77 = add nsw i32 %76, 7
  %78 = sdiv i32 %77, 8
  %79 = sub nsw i32 %75, %78
  %80 = load i32, ptr %11, align 4
  %81 = add nsw i32 %80, %79
  store i32 %81, ptr %11, align 4
  br label %82

82:                                               ; preds = %74, %71
  br label %83

83:                                               ; preds = %82, %63
  br label %84

84:                                               ; preds = %83, %52
  %85 = load ptr, ptr %3, align 8
  %86 = getelementptr inbounds nuw %struct.SDL_BlitInfo, ptr %85, i32 0, i32 12
  %87 = load ptr, ptr %86, align 8
  %88 = getelementptr inbounds nuw %struct.SDL_PixelFormatDetails, ptr %87, i32 0, i32 0
  %89 = load i32, ptr %88, align 4
  %90 = lshr i32 %89, 20
  %91 = and i32 %90, 15
  %92 = icmp eq i32 %91, 1
  br i1 %92, label %93, label %151

93:                                               ; preds = %84
  br label %94

94:                                               ; preds = %141, %93
  %95 = load i32, ptr %8, align 4
  %96 = add nsw i32 %95, -1
  store i32 %96, ptr %8, align 4
  %97 = icmp ne i32 %95, 0
  br i1 %97, label %98, label %150

98:                                               ; preds = %94
  call void @llvm.lifetime.start.p0(i64 1, ptr %16) #4
  store i8 0, ptr %16, align 1
  call void @llvm.lifetime.start.p0(i64 1, ptr %17) #4
  store i32 0, ptr %15, align 4
  br label %99

99:                                               ; preds = %138, %98
  %100 = load i32, ptr %15, align 4
  %101 = load i32, ptr %7, align 4
  %102 = icmp slt i32 %100, %101
  br i1 %102, label %103, label %141

103:                                              ; preds = %99
  %104 = load i32, ptr %15, align 4
  %105 = load i32, ptr %6, align 4
  %106 = and i32 %104, %105
  %107 = icmp ne i32 %106, 0
  br i1 %107, label %112, label %108

108:                                              ; preds = %103
  %109 = load ptr, ptr %9, align 8
  %110 = getelementptr inbounds nuw i8, ptr %109, i32 1
  store ptr %110, ptr %9, align 8
  %111 = load i8, ptr %109, align 1
  store i8 %111, ptr %16, align 1
  br label %112

112:                                              ; preds = %108, %103
  %113 = load i8, ptr %16, align 1
  %114 = zext i8 %113 to i32
  %115 = load i32, ptr %5, align 4
  %116 = and i32 %114, %115
  %117 = trunc i32 %116 to i8
  store i8 %117, ptr %17, align 1
  %118 = load i8, ptr %17, align 1
  %119 = zext i8 %118 to i32
  %120 = load i32, ptr %13, align 4
  %121 = icmp ne i32 %119, %120
  br i1 %121, label %122, label %130

122:                                              ; preds = %112
  %123 = load ptr, ptr %10, align 8
  %124 = load ptr, ptr %14, align 8
  %125 = load i8, ptr %17, align 1
  %126 = zext i8 %125 to i32
  %127 = mul nsw i32 %126, 4
  %128 = sext i32 %127 to i64
  %129 = getelementptr inbounds i8, ptr %124, i64 %128
  call void @llvm.memcpy.p0.p0.i64(ptr align 1 %123, ptr align 1 %129, i64 3, i1 false)
  br label %130

130:                                              ; preds = %122, %112
  %131 = load i32, ptr %4, align 4
  %132 = load i8, ptr %16, align 1
  %133 = zext i8 %132 to i32
  %134 = ashr i32 %133, %131
  %135 = trunc i32 %134 to i8
  store i8 %135, ptr %16, align 1
  %136 = load ptr, ptr %10, align 8
  %137 = getelementptr inbounds i8, ptr %136, i64 3
  store ptr %137, ptr %10, align 8
  br label %138

138:                                              ; preds = %130
  %139 = load i32, ptr %15, align 4
  %140 = add nsw i32 %139, 1
  store i32 %140, ptr %15, align 4
  br label %99, !llvm.loop !44

141:                                              ; preds = %99
  %142 = load i32, ptr %11, align 4
  %143 = load ptr, ptr %9, align 8
  %144 = sext i32 %142 to i64
  %145 = getelementptr inbounds i8, ptr %143, i64 %144
  store ptr %145, ptr %9, align 8
  %146 = load i32, ptr %12, align 4
  %147 = load ptr, ptr %10, align 8
  %148 = sext i32 %146 to i64
  %149 = getelementptr inbounds i8, ptr %147, i64 %148
  store ptr %149, ptr %10, align 8
  call void @llvm.lifetime.end.p0(i64 1, ptr %17) #4
  call void @llvm.lifetime.end.p0(i64 1, ptr %16) #4
  br label %94, !llvm.loop !45

150:                                              ; preds = %94
  br label %212

151:                                              ; preds = %84
  br label %152

152:                                              ; preds = %202, %151
  %153 = load i32, ptr %8, align 4
  %154 = add nsw i32 %153, -1
  store i32 %154, ptr %8, align 4
  %155 = icmp ne i32 %153, 0
  br i1 %155, label %156, label %211

156:                                              ; preds = %152
  call void @llvm.lifetime.start.p0(i64 1, ptr %18) #4
  store i8 0, ptr %18, align 1
  call void @llvm.lifetime.start.p0(i64 1, ptr %19) #4
  store i32 0, ptr %15, align 4
  br label %157

157:                                              ; preds = %199, %156
  %158 = load i32, ptr %15, align 4
  %159 = load i32, ptr %7, align 4
  %160 = icmp slt i32 %158, %159
  br i1 %160, label %161, label %202

161:                                              ; preds = %157
  %162 = load i32, ptr %15, align 4
  %163 = load i32, ptr %6, align 4
  %164 = and i32 %162, %163
  %165 = icmp ne i32 %164, 0
  br i1 %165, label %170, label %166

166:                                              ; preds = %161
  %167 = load ptr, ptr %9, align 8
  %168 = getelementptr inbounds nuw i8, ptr %167, i32 1
  store ptr %168, ptr %9, align 8
  %169 = load i8, ptr %167, align 1
  store i8 %169, ptr %18, align 1
  br label %170

170:                                              ; preds = %166, %161
  %171 = load i8, ptr %18, align 1
  %172 = zext i8 %171 to i32
  %173 = load i32, ptr %4, align 4
  %174 = sub i32 8, %173
  %175 = ashr i32 %172, %174
  %176 = load i32, ptr %5, align 4
  %177 = and i32 %175, %176
  %178 = trunc i32 %177 to i8
  store i8 %178, ptr %19, align 1
  %179 = load i8, ptr %19, align 1
  %180 = zext i8 %179 to i32
  %181 = load i32, ptr %13, align 4
  %182 = icmp ne i32 %180, %181
  br i1 %182, label %183, label %191

183:                                              ; preds = %170
  %184 = load ptr, ptr %10, align 8
  %185 = load ptr, ptr %14, align 8
  %186 = load i8, ptr %19, align 1
  %187 = zext i8 %186 to i32
  %188 = mul nsw i32 %187, 4
  %189 = sext i32 %188 to i64
  %190 = getelementptr inbounds i8, ptr %185, i64 %189
  call void @llvm.memcpy.p0.p0.i64(ptr align 1 %184, ptr align 1 %190, i64 3, i1 false)
  br label %191

191:                                              ; preds = %183, %170
  %192 = load i32, ptr %4, align 4
  %193 = load i8, ptr %18, align 1
  %194 = zext i8 %193 to i32
  %195 = shl i32 %194, %192
  %196 = trunc i32 %195 to i8
  store i8 %196, ptr %18, align 1
  %197 = load ptr, ptr %10, align 8
  %198 = getelementptr inbounds i8, ptr %197, i64 3
  store ptr %198, ptr %10, align 8
  br label %199

199:                                              ; preds = %191
  %200 = load i32, ptr %15, align 4
  %201 = add nsw i32 %200, 1
  store i32 %201, ptr %15, align 4
  br label %157, !llvm.loop !46

202:                                              ; preds = %157
  %203 = load i32, ptr %11, align 4
  %204 = load ptr, ptr %9, align 8
  %205 = sext i32 %203 to i64
  %206 = getelementptr inbounds i8, ptr %204, i64 %205
  store ptr %206, ptr %9, align 8
  %207 = load i32, ptr %12, align 4
  %208 = load ptr, ptr %10, align 8
  %209 = sext i32 %207 to i64
  %210 = getelementptr inbounds i8, ptr %208, i64 %209
  store ptr %210, ptr %10, align 8
  call void @llvm.lifetime.end.p0(i64 1, ptr %19) #4
  call void @llvm.lifetime.end.p0(i64 1, ptr %18) #4
  br label %152, !llvm.loop !47

211:                                              ; preds = %152
  br label %212

212:                                              ; preds = %211, %150
  call void @llvm.lifetime.end.p0(i64 4, ptr %15) #4
  call void @llvm.lifetime.end.p0(i64 8, ptr %14) #4
  call void @llvm.lifetime.end.p0(i64 4, ptr %13) #4
  call void @llvm.lifetime.end.p0(i64 4, ptr %12) #4
  call void @llvm.lifetime.end.p0(i64 4, ptr %11) #4
  call void @llvm.lifetime.end.p0(i64 8, ptr %10) #4
  call void @llvm.lifetime.end.p0(i64 8, ptr %9) #4
  call void @llvm.lifetime.end.p0(i64 4, ptr %8) #4
  call void @llvm.lifetime.end.p0(i64 4, ptr %7) #4
  call void @llvm.lifetime.end.p0(i64 4, ptr %6) #4
  call void @llvm.lifetime.end.p0(i64 4, ptr %5) #4
  ret void
}

; Function Attrs: nounwind uwtable
define internal void @Blit2bto3Key(ptr noundef %0) #0 {
  %2 = alloca ptr, align 8
  store ptr %0, ptr %2, align 8
  %3 = load ptr, ptr %2, align 8
  call void @BlitBto3Key(ptr noundef %3, i32 noundef 2)
  ret void
}